target datalayout = "e-m:e-p270:32:32-p271:32:32-p272:64:64-i64:64-i128:128-f80:128-n8:16:32:64-S128"
target triple = "x86_64-pc-linux-gnu"

%struct.strbuf = type { i64, i64, ptr }
%union.pthread_mutex_t = type { %struct.__pthread_mutex_s }
%struct.__pthread_mutex_s = type { i32, i32, i32, i32, i32, i16, i16, %struct.__pthread_internal_list }
%struct.__pthread_internal_list = type { ptr, ptr }
%struct.repository = type { ptr, ptr, ptr, ptr, ptr, %struct.strmap, %struct.strmap, %struct.repo_path_cache, ptr, ptr, ptr, ptr, %struct.repo_settings, ptr, ptr, ptr, ptr, ptr, ptr, i32, i32, i32, ptr, ptr, i32, i32, i8 }
%struct.strmap = type { %struct.hashmap, ptr, i8 }
%struct.hashmap = type { ptr, ptr, ptr, i32, i32, i32, i32, i8 }
%struct.repo_path_cache = type { ptr, ptr, ptr, ptr, ptr, ptr, ptr }
%struct.repo_settings = type { i32, i32, i32, i32, i32, i32, i32, i32, i32, i32, i32, i32, ptr, i32, i32, i32, i32, i32, i32, i32, i64, i64, i64 }
%struct.raw_object_store = type { ptr, ptr, ptr, i32, ptr, ptr, i8, %union.pthread_mutex_t, ptr, i8, ptr, ptr, %struct.list_head, %struct.anon, %struct.hashmap, i64, i8 }
%struct.list_head = type { ptr, ptr }
%struct.anon = type { ptr, i32 }
%struct.object_directory = type { ptr, [8 x i32], ptr, ptr, i32, i32, ptr }

@the_repository = external global ptr, align 8
@__const.for_each_loose_file_in_objdir.buf = private unnamed_addr constant %struct.strbuf { i64 0, i64 0, ptr @strbuf_slopbuf }, align 8

; Function Attrs: nounwind uwtable
define dso_local i32 @for_each_loose_file_in_objdir_buf(ptr noundef %0, ptr noundef %1, ptr noundef %2, ptr noundef %3, ptr noundef %4) #0 {
  %6 = alloca ptr, align 8
  %7 = alloca ptr, align 8
  %8 = alloca ptr, align 8
  %9 = alloca ptr, align 8
  %10 = alloca ptr, align 8
  %11 = alloca i32, align 4
  %12 = alloca i32, align 4
  store ptr %0, ptr %6, align 8, !tbaa !62
  store ptr %1, ptr %7, align 8, !tbaa !9
  store ptr %2, ptr %8, align 8, !tbaa !9
  store ptr %3, ptr %9, align 8, !tbaa !9
  store ptr %4, ptr %10, align 8, !tbaa !9
  call void @llvm.lifetime.start.p0(i64 4, ptr %11) #14
  store i32 0, ptr %11, align 4, !tbaa !43
  call void @llvm.lifetime.start.p0(i64 4, ptr %12) #14
  store i32 0, ptr %12, align 4, !tbaa !43
  br label %13

13:                                               ; preds = %28, %5
  %14 = load i32, ptr %12, align 4, !tbaa !43
  %15 = icmp slt i32 %14, 256
  br i1 %15, label %16, label %31

16:                                               ; preds = %13
  %17 = load i32, ptr %12, align 4, !tbaa !43
  %18 = load ptr, ptr %6, align 8, !tbaa !62
  %19 = load ptr, ptr %7, align 8, !tbaa !9
  %20 = load ptr, ptr %8, align 8, !tbaa !9
  %21 = load ptr, ptr %9, align 8, !tbaa !9
  %22 = load ptr, ptr %10, align 8, !tbaa !9
  %23 = call i32 @for_each_file_in_obj_subdir(i32 noundef %17, ptr noundef %18, ptr noundef %19, ptr noundef %20, ptr noundef %21, ptr noundef %22)
  store i32 %23, ptr %11, align 4, !tbaa !43
  %24 = load i32, ptr %11, align 4, !tbaa !43
  %25 = icmp ne i32 %24, 0
  br i1 %25, label %26, label %27

26:                                               ; preds = %16
  br label %31

27:                                               ; preds = %16
  br label %28

28:                                               ; preds = %27
  %29 = load i32, ptr %12, align 4, !tbaa !43
  %30 = add nsw i32 %29, 1
  store i32 %30, ptr %12, align 4, !tbaa !43
  br label %13, !llvm.loop !192

31:                                               ; preds = %26, %13
  %32 = load i32, ptr %11, align 4, !tbaa !43
  call void @llvm.lifetime.end.p0(i64 4, ptr %12) #14
  call void @llvm.lifetime.end.p0(i64 4, ptr %11) #14
  ret i32 %32
}

; Function Attrs: inlinehint nounwind uwtable
define internal void @strbuf_addstr(ptr noundef %0, ptr noundef %1) #7 {
  %3 = alloca ptr, align 8
  %4 = alloca ptr, align 8
  store ptr %0, ptr %3, align 8, !tbaa !62
  store ptr %1, ptr %4, align 8, !tbaa !12
  %5 = load ptr, ptr %3, align 8, !tbaa !62
  %6 = load ptr, ptr %4, align 8, !tbaa !12
  %7 = load ptr, ptr %4, align 8, !tbaa !12
  %8 = call i64 @strlen(ptr noundef %7) #15
  call void @strbuf_add(ptr noundef %5, ptr noundef %6, i64 noundef %8)
  ret void
}

; Function Attrs: nounwind uwtable
define dso_local i32 @for_each_loose_file_in_objdir(ptr noundef %0, ptr noundef %1, ptr noundef %2, ptr noundef %3, ptr noundef %4) #0 {
  %6 = alloca ptr, align 8
  %7 = alloca ptr, align 8
  %8 = alloca ptr, align 8
  %9 = alloca ptr, align 8
  %10 = alloca ptr, align 8
  %11 = alloca %struct.strbuf, align 8
  %12 = alloca i32, align 4
  store ptr %0, ptr %6, align 8, !tbaa !12
  store ptr %1, ptr %7, align 8, !tbaa !9
  store ptr %2, ptr %8, align 8, !tbaa !9
  store ptr %3, ptr %9, align 8, !tbaa !9
  store ptr %4, ptr %10, align 8, !tbaa !9
  call void @llvm.lifetime.start.p0(i64 24, ptr %11) #14
  call void @llvm.memcpy.p0.p0.i64(ptr align 8 %11, ptr align 8 @__const.for_each_loose_file_in_objdir.buf, i64 24, i1 false)
  call void @llvm.lifetime.start.p0(i64 4, ptr %12) #14
  %13 = load ptr, ptr %6, align 8, !tbaa !12
  call void @strbuf_addstr(ptr noundef %11, ptr noundef %13)
  %14 = load ptr, ptr %7, align 8, !tbaa !9
  %15 = load ptr, ptr %8, align 8, !tbaa !9
  %16 = load ptr, ptr %9, align 8, !tbaa !9
  %17 = load ptr, ptr %10, align 8, !tbaa !9
  %18 = call i32 @for_each_loose_file_in_objdir_buf(ptr noundef %11, ptr noundef %14, ptr noundef %15, ptr noundef %16, ptr noundef %17)
  store i32 %18, ptr %12, align 4, !tbaa !43
  call void @strbuf_release(ptr noundef %11)
  %19 = load i32, ptr %12, align 4, !tbaa !43
  call void @llvm.lifetime.end.p0(i64 4, ptr %12) #14
  call void @llvm.lifetime.end.p0(i64 24, ptr %11) #14
  ret i32 %19
}

; Function Attrs: nounwind uwtable
define dso_local i32 @for_each_loose_object(ptr noundef %0, ptr noundef %1, i32 noundef %2) #0 {
  %4 = alloca i32, align 4
  %5 = alloca ptr, align 8
  %6 = alloca ptr, align 8
  %7 = alloca i32, align 4
  %8 = alloca ptr, align 8
  %9 = alloca i32, align 4
  %10 = alloca i32, align 4
  store ptr %0, ptr %5, align 8, !tbaa !9
  store ptr %1, ptr %6, align 8, !tbaa !9
  store i32 %2, ptr %7, align 4, !tbaa !43
  call void @llvm.lifetime.start.p0(i64 8, ptr %8) #14
  %11 = load ptr, ptr @the_repository, align 8, !tbaa !19
  call void @prepare_alt_odb(ptr noundef %11)
  %12 = load ptr, ptr @the_repository, align 8, !tbaa !19
  %13 = getelementptr inbounds nuw %struct.repository, ptr %12, i32 0, i32 2
  %14 = load ptr, ptr %13, align 8, !tbaa !64
  %15 = getelementptr inbounds nuw %struct.raw_object_store, ptr %14, i32 0, i32 0
  %16 = load ptr, ptr %15, align 8, !tbaa !65
  store ptr %16, ptr %8, align 8, !tbaa !78
  br label %17

17:                                               ; preds = %40, %3
  %18 = load ptr, ptr %8, align 8, !tbaa !78
  %19 = icmp ne ptr %18, null
  br i1 %19, label %20, label %44

20:                                               ; preds = %17
  call void @llvm.lifetime.start.p0(i64 4, ptr %9) #14
  %21 = load ptr, ptr %8, align 8, !tbaa !78
  %22 = getelementptr inbounds nuw %struct.object_directory, ptr %21, i32 0, i32 6
  %23 = load ptr, ptr %22, align 8, !tbaa !79
  %24 = load ptr, ptr %5, align 8, !tbaa !9
  %25 = load ptr, ptr %6, align 8, !tbaa !9
  %26 = call i32 @for_each_loose_file_in_objdir(ptr noundef %23, ptr noundef %24, ptr noundef null, ptr noundef null, ptr noundef %25)
  store i32 %26, ptr %9, align 4, !tbaa !43
  %27 = load i32, ptr %9, align 4, !tbaa !43
  %28 = icmp ne i32 %27, 0
  br i1 %28, label %29, label %31

29:                                               ; preds = %20
  %30 = load i32, ptr %9, align 4, !tbaa !43
  store i32 %30, ptr %4, align 4
  store i32 1, ptr %10, align 4
  br label %37

31:                                               ; preds = %20
  %32 = load i32, ptr %7, align 4, !tbaa !43
  %33 = and i32 %32, 1
  %34 = icmp ne i32 %33, 0
  br i1 %34, label %35, label %36

35:                                               ; preds = %31
  store i32 2, ptr %10, align 4
  br label %37

36:                                               ; preds = %31
  store i32 0, ptr %10, align 4
  br label %37

37:                                               ; preds = %36, %35, %29
  call void @llvm.lifetime.end.p0(i64 4, ptr %9) #14
  %38 = load i32, ptr %10, align 4
  switch i32 %38, label %45 [
    i32 0, label %39
    i32 2, label %44
  ]

39:                                               ; preds = %37
  br label %40

40:                                               ; preds = %39
  %41 = load ptr, ptr %8, align 8, !tbaa !78
  %42 = getelementptr inbounds nuw %struct.object_directory, ptr %41, i32 0, i32 0
  %43 = load ptr, ptr %42, align 8, !tbaa !97
  store ptr %43, ptr %8, align 8, !tbaa !78
  br label %17, !llvm.loop !193

44:                                               ; preds = %37, %17
  store i32 0, ptr %4, align 4
  store i32 1, ptr %10, align 4
  br label %45

45:                                               ; preds = %44, %37
  call void @llvm.lifetime.end.p0(i64 8, ptr %8) #14
  %46 = load i32, ptr %4, align 4
  ret i32 %46
}