; Function Attrs: nounwind uwtable
define dso_local i32 @for_each_loose_object(ptr noundef %0, ptr noundef %1, i32 noundef %2) local_unnamed_addr #1 {
  %4 = alloca %struct.strbuf, align 8
  %5 = load ptr, ptr @the_repository, align 8, !tbaa !9
  tail call void @prepare_alt_odb(ptr noundef %5)
  %6 = load ptr, ptr @the_repository, align 8, !tbaa !9
  %7 = getelementptr inbounds nuw i8, ptr %6, i64 16
  %8 = load ptr, ptr %7, align 8, !tbaa !54
  %9 = shl i32 %2, 1
  %. = and i32 %9, 2
  br label %10

10:                                               ; preds = %for_each_loose_file_in_objdir.exit, %3
  %.010.in = phi ptr [ %8, %3 ], [ %.010, %for_each_loose_file_in_objdir.exit ]
  %.09 = phi i32 [ undef, %3 ], [ %.1, %for_each_loose_file_in_objdir.exit ]
  %.010 = load ptr, ptr %.010.in, align 8, !tbaa !86
  %.not = icmp eq ptr %.010, null
  br i1 %.not, label %.loopexit, label %11

11:                                               ; preds = %10
  %12 = getelementptr inbounds nuw i8, ptr %.010, i64 64
  %13 = load ptr, ptr %12, align 8, !tbaa !68
  call void @llvm.lifetime.start.p0(i64 24, ptr nonnull %4) #27
  call void @llvm.memcpy.p0.p0.i64(ptr noundef nonnull align 8 dereferenceable(24) %4, ptr noundef nonnull align 8 dereferenceable(24) @__const.index_mem.nbuf, i64 24, i1 false)
  %14 = call i64 @strlen(ptr noundef nonnull dereferenceable(1) %13) #28
  call void @strbuf_add(ptr noundef nonnull %4, ptr noundef nonnull %13, i64 noundef %14) #27
  br label %15

15:                                               ; preds = %15, %11
  %.012.i.i = phi i32 [ 0, %11 ], [ %17, %15 ]
  %16 = call i32 @for_each_file_in_obj_subdir(i32 noundef %.012.i.i, ptr noundef nonnull %4, ptr noundef %0, ptr noundef null, ptr noundef null, ptr noundef %1)
  %.not.i.i = icmp ne i32 %16, 0
  %17 = add nuw nsw i32 %.012.i.i, 1
  %exitcond.not.i.i = icmp eq i32 %17, 256
  %or.cond.i.i = select i1 %.not.i.i, i1 true, i1 %exitcond.not.i.i
  br i1 %or.cond.i.i, label %for_each_loose_file_in_objdir.exit, label %15, !llvm.loop !166

for_each_loose_file_in_objdir.exit:               ; preds = %15
  call void @strbuf_release(ptr noundef nonnull %4) #27
  call void @llvm.lifetime.end.p0(i64 24, ptr nonnull %4) #27
  %.not12 = icmp eq i32 %16, 0
  %.1 = select i1 %.not12, i32 %.09, i32 %16
  %.0 = select i1 %.not12, i32 %., i32 1
  switch i32 %.0, label %.loopexit.loopexit [
    i32 0, label %10
    i32 2, label %.loopexit
  ], !llvm.loop !167

.loopexit.loopexit:                               ; preds = %for_each_loose_file_in_objdir.exit
  br label %.loopexit

.loopexit:                                        ; preds = %10, %for_each_loose_file_in_objdir.exit, %.loopexit.loopexit
  %.2 = phi i32 [ %.1, %.loopexit.loopexit ], [ 0, %for_each_loose_file_in_objdir.exit ], [ 0, %10 ]
  ret i32 %.2
}